target datalayout = "e-m:e-p270:32:32-p271:32:32-p272:64:64-i64:64-i128:128-f80:128-n8:16:32:64-S128"
target triple = "x86_64-pc-linux-gnu"

%struct.rb_data_type_struct = type { ptr, %struct.anon, ptr, ptr, i64 }
%struct.anon = type { ptr, ptr, ptr, ptr, [1 x ptr] }
%struct.RTypedData = type { %struct.RBasic, ptr, i64, ptr }
%struct.RBasic = type { i64, i64 }

@eOCSPError = internal global i64 0, align 8
@rb_eRuntimeError = external global i64, align 8
@ossl_ocsp_certid_type = internal constant %struct.rb_data_type_struct { ptr @.str.80, %struct.anon { ptr null, ptr @ossl_ocsp_certid_free, ptr null, ptr null, [1 x ptr] zeroinitializer }, ptr null, ptr null, i64 33 }, align 8
@.str.77 = private unnamed_addr constant [28 x i8] c"Cert ID wasn't initialized!\00", align 1

; Function Attrs: nounwind sspstrong uwtable
define internal i64 @ossl_ocspcid_alloc(i64 noundef %0) #0 {
  %2 = alloca i64, align 8
  %3 = alloca ptr, align 8
  %4 = alloca i64, align 8
  store i64 %0, ptr %2, align 8, !tbaa !6
  call void @llvm.lifetime.start.p0(i64 8, ptr %3) #15
  call void @llvm.lifetime.start.p0(i64 8, ptr %4) #15
  %5 = load i64, ptr %2, align 8, !tbaa !6
  %6 = call i64 @rb_data_typed_object_wrap(i64 noundef %5, ptr noundef null, ptr noundef @ossl_ocsp_certid_type)
  store i64 %6, ptr %4, align 8, !tbaa !6
  %7 = call ptr @OCSP_CERTID_new()
  store ptr %7, ptr %3, align 8, !tbaa !25
  %8 = icmp ne ptr %7, null
  br i1 %8, label %11, label %9

9:                                                ; preds = %1
  %10 = load i64, ptr @eOCSPError, align 8, !tbaa !6
  call void (i64, ptr, ...) @ossl_raise(i64 noundef %10, ptr noundef null) #16
  unreachable

11:                                               ; preds = %1
  br label %12

12:                                               ; preds = %11
  %13 = load ptr, ptr %3, align 8, !tbaa !25
  %14 = icmp ne ptr %13, null
  br i1 %14, label %17, label %15

15:                                               ; preds = %12
  %16 = load i64, ptr @rb_eRuntimeError, align 8, !tbaa !6
  call void (i64, ptr, ...) @ossl_raise(i64 noundef %16, ptr noundef @.str.77) #16
  unreachable

17:                                               ; preds = %12
  %18 = load ptr, ptr %3, align 8, !tbaa !25
  %19 = load i64, ptr %4, align 8, !tbaa !6
  %20 = inttoptr i64 %19 to ptr
  %21 = getelementptr inbounds nuw %struct.RTypedData, ptr %20, i32 0, i32 3
  store ptr %18, ptr %21, align 8, !tbaa !13
  br label %22

22:                                               ; preds = %17
  br label %23

23:                                               ; preds = %22
  %24 = load i64, ptr %4, align 8, !tbaa !6
  call void @llvm.lifetime.end.p0(i64 8, ptr %4) #15
  call void @llvm.lifetime.end.p0(i64 8, ptr %3) #15
  ret i64 %24
}